; ModuleID = '49/1114.c'
source_filename = "49/1114.c"
target datalayout = "e-m:e-p270:32:32-p271:32:32-p272:64:64-i64:64-f80:128-n8:16:32:64-S128"
target triple = "x86_64-pc-linux-gnu"

@.str = private unnamed_addr constant [3 x i8] c"%c\00", align 1
@.str.1 = private unnamed_addr constant [2 x i8] c"\0A\00", align 1

; Function Attrs: noinline nounwind uwtable
define dso_local i32 @main() #0 {
  %1 = alloca i32, align 4
  %2 = alloca [500 x i8], align 16
  %3 = alloca i32, align 4
  %4 = alloca i32, align 4
  %5 = alloca i32, align 4
  %6 = alloca i32, align 4
  %7 = alloca i32, align 4
  %8 = alloca i32, align 4
  %9 = alloca i32, align 4
  %10 = alloca i32, align 4
  store i32 0, i32* %1, align 4
  %11 = getelementptr inbounds [500 x i8], [500 x i8]* %2, i64 0, i64 0
  %12 = call i32 (i8*, ...) bitcast (i32 (...)* @gets to i32 (i8*, ...)*)(i8* %11)
  %13 = getelementptr inbounds [500 x i8], [500 x i8]* %2, i64 0, i64 0
  %14 = call i64 @strlen(i8* %13) #3
  %15 = trunc i64 %14 to i32
  store i32 %15, i32* %5, align 4
  store i32 2, i32* %8, align 4
  br label %16

16:                                               ; preds = %88, %0
  %17 = load i32, i32* %8, align 4
  %18 = load i32, i32* %5, align 4
  %19 = icmp slt i32 %17, %18
  br i1 %19, label %20, label %91

20:                                               ; preds = %16
  store i32 1, i32* %9, align 4
  store i32 0, i32* %7, align 4
  br label %21

21:                                               ; preds = %84, %20
  %22 = load i32, i32* %7, align 4
  %23 = load i32, i32* %5, align 4
  %24 = load i32, i32* %8, align 4
  %25 = sub nsw i32 %23, %24
  %26 = add nsw i32 %25, 1
  %27 = icmp slt i32 %22, %26
  br i1 %27, label %28, label %87

28:                                               ; preds = %21
  %29 = load i32, i32* %7, align 4
  store i32 %29, i32* %3, align 4
  %30 = load i32, i32* %3, align 4
  %31 = load i32, i32* %8, align 4
  %32 = add nsw i32 %30, %31
  %33 = sub nsw i32 %32, 1
  store i32 %33, i32* %4, align 4
  br label %34

34:                                               ; preds = %53, %28
  %35 = load i32, i32* %3, align 4
  %36 = load i32, i32* %4, align 4
  %37 = icmp slt i32 %35, %36
  br i1 %37, label %38, label %58

38:                                               ; preds = %34
  %39 = load i32, i32* %3, align 4
  %40 = sext i32 %39 to i64
  %41 = getelementptr inbounds [500 x i8], [500 x i8]* %2, i64 0, i64 %40
  %42 = load i8, i8* %41, align 1
  %43 = sext i8 %42 to i32
  %44 = load i32, i32* %4, align 4
  %45 = sext i32 %44 to i64
  %46 = getelementptr inbounds [500 x i8], [500 x i8]* %2, i64 0, i64 %45
  %47 = load i8, i8* %46, align 1
  %48 = sext i8 %47 to i32
  %49 = icmp eq i32 %43, %48
  br i1 %49, label %50, label %51

50:                                               ; preds = %38
  store i32 1, i32* %9, align 4
  br label %52

51:                                               ; preds = %38
  store i32 0, i32* %9, align 4
  br label %58

52:                                               ; preds = %50
  br label %53

53:                                               ; preds = %52
  %54 = load i32, i32* %3, align 4
  %55 = add nsw i32 %54, 1
  store i32 %55, i32* %3, align 4
  %56 = load i32, i32* %4, align 4
  %57 = add nsw i32 %56, -1
  store i32 %57, i32* %4, align 4
  br label %34

58:                                               ; preds = %51, %34
  %59 = load i32, i32* %9, align 4
  %60 = icmp eq i32 %59, 1
  br i1 %60, label %61, label %83

61:                                               ; preds = %58
  %62 = load i32, i32* %7, align 4
  store i32 %62, i32* %6, align 4
  store i32 0, i32* %10, align 4
  br label %63

63:                                               ; preds = %76, %61
  %64 = load i32, i32* %10, align 4
  %65 = load i32, i32* %8, align 4
  %66 = icmp slt i32 %64, %65
  br i1 %66, label %67, label %81

67:                                               ; preds = %63
  %68 = load i32, i32* %6, align 4
  %69 = sext i32 %68 to i64
  %70 = getelementptr inbounds [500 x i8], [500 x i8]* %2, i64 0, i64 %69
  %71 = load i8, i8* %70, align 1
  %72 = sext i8 %71 to i32
  %73 = load i32, i32* %3, align 4
  %74 = load i32, i32* %4, align 4
  %75 = call i32 (i8*, ...) @printf(i8* getelementptr inbounds ([3 x i8], [3 x i8]* @.str, i64 0, i64 0), i32 %72, i32 %73, i32 %74)
  br label %76

76:                                               ; preds = %67
  %77 = load i32, i32* %6, align 4
  %78 = add nsw i32 %77, 1
  store i32 %78, i32* %6, align 4
  %79 = load i32, i32* %10, align 4
  %80 = add nsw i32 %79, 1
  store i32 %80, i32* %10, align 4
  br label %63

81:                                               ; preds = %63
  %82 = call i32 (i8*, ...) @printf(i8* getelementptr inbounds ([2 x i8], [2 x i8]* @.str.1, i64 0, i64 0))
  br label %83

83:                                               ; preds = %81, %58
  br label %84

84:                                               ; preds = %83
  %85 = load i32, i32* %7, align 4
  %86 = add nsw i32 %85, 1
  store i32 %86, i32* %7, align 4
  br label %21

87:                                               ; preds = %21
  br label %88

88:                                               ; preds = %87
  %89 = load i32, i32* %8, align 4
  %90 = add nsw i32 %89, 1
  store i32 %90, i32* %8, align 4
  br label %16

91:                                               ; preds = %16
  ret i32 0
}

declare dso_local i32 @gets(...) #1

; Function Attrs: nounwind readonly
declare dso_local i64 @strlen(i8*) #2

declare dso_local i32 @printf(i8*, ...) #1


!llvm.module.flags = !{!0}
!llvm.ident = !{!1}

!0 = !{i32 1, !"wchar_size", i32 4}
!1 = !{!"clang version 10.0.0-4ubuntu1 "}
